; Function Attrs: nounwind uwtable
define internal ptr @sys_trace_exception_func(ptr noundef readonly captures(none) %0, ptr noundef readonly captures(none) %1, i64 %2, ptr readnone captures(none) %3) #0 {
  %5 = getelementptr i8, ptr %1, i64 16
  %6 = load ptr, ptr %5, align 8, !tbaa !111
  %7 = getelementptr i8, ptr %6, i64 8
  %.val = load ptr, ptr %7, align 8, !tbaa !112
  %8 = tail call ptr @PyException_GetTraceback(ptr noundef %6) #4
  %9 = icmp eq ptr %8, null
  br i1 %9, label %10, label %_Py_NewRef.exit

10:                                               ; preds = %4
  %11 = load i32, ptr @_Py_NoneStruct, align 8, !tbaa !15
  %12 = icmp slt i32 %11, 0
  br i1 %12, label %_Py_NewRef.exit, label %13

13:                                               ; preds = %10
  %14 = add nuw i32 %11, 1
  store i32 %14, ptr @_Py_NoneStruct, align 8, !tbaa !15
  br label %_Py_NewRef.exit

_Py_NewRef.exit:                                  ; preds = %13, %10, %4
  %.014 = phi ptr [ %8, %4 ], [ @_Py_NoneStruct, %10 ], [ @_Py_NoneStruct, %13 ]
  %15 = tail call ptr (i64, ...) @PyTuple_Pack(i64 noundef 3, ptr noundef %.val, ptr noundef nonnull %6, ptr noundef nonnull %.014) #4
  %16 = load i32, ptr %.014, align 8, !tbaa !15
  %.not.i17 = icmp sgt i32 %16, -1
  br i1 %.not.i17, label %17, label %Py_DECREF.exit18

17:                                               ; preds = %_Py_NewRef.exit
  %18 = add nsw i32 %16, -1
  store i32 %18, ptr %.014, align 8, !tbaa !15
  %19 = icmp eq i32 %18, 0
  br i1 %19, label %20, label %Py_DECREF.exit18

20:                                               ; preds = %17
  tail call void @_Py_Dealloc(ptr noundef nonnull %.014) #4
  br label %Py_DECREF.exit18

Py_DECREF.exit18:                                 ; preds = %_Py_NewRef.exit, %17, %20
  %21 = icmp eq ptr %15, null
  br i1 %21, label %Py_DECREF.exit, label %22

22:                                               ; preds = %Py_DECREF.exit18
  %23 = tail call fastcc ptr @call_trace_func(ptr noundef %0, ptr noundef nonnull %15)
  %24 = load i32, ptr %15, align 8, !tbaa !15
  %.not.i = icmp sgt i32 %24, -1
  br i1 %.not.i, label %25, label %Py_DECREF.exit

25:                                               ; preds = %22
  %26 = add nsw i32 %24, -1
  store i32 %26, ptr %15, align 8, !tbaa !15
  %27 = icmp eq i32 %26, 0
  br i1 %27, label %28, label %Py_DECREF.exit

28:                                               ; preds = %25
  tail call void @_Py_Dealloc(ptr noundef nonnull %15) #4
  br label %Py_DECREF.exit

Py_DECREF.exit:                                   ; preds = %28, %25, %22, %Py_DECREF.exit18
  %.0 = phi ptr [ null, %Py_DECREF.exit18 ], [ %23, %22 ], [ %23, %25 ], [ %23, %28 ]
  ret ptr %.0
}